; ModuleID = 'source-C-CXX/27/1388.c'
source_filename = "source-C-CXX/27/1388.c"
target datalayout = "e-m:e-p270:32:32-p271:32:32-p272:64:64-i64:64-f80:128-n8:16:32:64-S128"
target triple = "x86_64-pc-linux-gnu"

@.str = private unnamed_addr constant [3 x i8] c"%s\00", align 1
@.str.1 = private unnamed_addr constant [3 x i8] c"%d\00", align 1
@.str.2 = private unnamed_addr constant [4 x i8] c",%d\00", align 1

; Function Attrs: nofree nounwind sspstrong uwtable
define dso_local i32 @main() local_unnamed_addr #0 {
  %1 = tail call noalias align 16 dereferenceable_or_null(6000) i8* @calloc(i64 300, i64 20) #4
  %2 = bitcast i8* %1 to [20 x i8]*
  %3 = tail call i32 (i8*, ...) @__isoc99_scanf(i8* getelementptr inbounds ([3 x i8], [3 x i8]* @.str, i64 0, i64 0), i8* %1)
  %4 = icmp eq i32 %3, 1
  br i1 %4, label %5, label %20

5:                                                ; preds = %0
  %6 = tail call i64 @strlen(i8* noundef nonnull dereferenceable(1) %1) #5
  %7 = tail call i32 (i8*, ...) @printf(i8* nonnull dereferenceable(1) getelementptr inbounds ([3 x i8], [3 x i8]* @.str.1, i64 0, i64 0), i64 %6)
  %8 = getelementptr inbounds [20 x i8], [20 x i8]* %2, i64 1, i64 0
  %9 = tail call i32 (i8*, ...) @__isoc99_scanf(i8* getelementptr inbounds ([3 x i8], [3 x i8]* @.str, i64 0, i64 0), i8* nonnull %8)
  %10 = icmp eq i32 %9, 1
  br i1 %10, label %11, label %20

11:                                               ; preds = %5, %11
  %12 = phi i64 [ %16, %11 ], [ 1, %5 ]
  %13 = phi i8* [ %17, %11 ], [ %8, %5 ]
  %14 = tail call i64 @strlen(i8* noundef nonnull dereferenceable(1) %13) #5
  %15 = tail call i32 (i8*, ...) @printf(i8* nonnull dereferenceable(1) getelementptr inbounds ([4 x i8], [4 x i8]* @.str.2, i64 0, i64 0), i64 %14)
  %16 = add nuw i64 %12, 1
  %17 = getelementptr inbounds [20 x i8], [20 x i8]* %2, i64 %16, i64 0
  %18 = tail call i32 (i8*, ...) @__isoc99_scanf(i8* getelementptr inbounds ([3 x i8], [3 x i8]* @.str, i64 0, i64 0), i8* nonnull %17)
  %19 = icmp eq i32 %18, 1
  br i1 %19, label %11, label %20, !llvm.loop !5

20:                                               ; preds = %11, %5, %0
  ret i32 0
}

; Function Attrs: mustprogress nofree nounwind willreturn
declare noalias noundef align 16 i8* @calloc(i64 noundef, i64 noundef) local_unnamed_addr #1

; Function Attrs: nofree nounwind
declare noundef i32 @__isoc99_scanf(i8* nocapture noundef readonly, ...) local_unnamed_addr #2

; Function Attrs: nofree nounwind
declare noundef i32 @printf(i8* nocapture noundef readonly, ...) local_unnamed_addr #2

; Function Attrs: argmemonly mustprogress nofree nounwind readonly willreturn
declare i64 @strlen(i8* nocapture) local_unnamed_addr #3


!llvm.module.flags = !{!0, !1, !2, !3}
!llvm.ident = !{!4}

!0 = !{i32 1, !"wchar_size", i32 4}
!1 = !{i32 7, !"PIC Level", i32 2}
!2 = !{i32 7, !"PIE Level", i32 2}
!3 = !{i32 7, !"uwtable", i32 1}
!4 = !{!"clang version 13.0.0"}
!5 = distinct !{!5, !6, !7}
!6 = !{!"llvm.loop.mustprogress"}
!7 = !{!"llvm.loop.peeled.count", i32 1}
